target datalayout = "e-m:e-p270:32:32-p271:32:32-p272:64:64-i64:64-i128:128-f80:128-n8:16:32:64-S128"
target triple = "x86_64-pc-linux-gnu"

; Function Attrs: nounwind uwtable
define internal void @eotf_bt1886(double noundef %0, double noundef %1, ptr noundef %2) #0 {
  %4 = alloca double, align 8
  %5 = alloca double, align 8
  %6 = alloca ptr, align 8
  %7 = alloca double, align 8
  %8 = alloca double, align 8
  %9 = alloca double, align 8
  %10 = alloca double, align 8
  %11 = alloca i32, align 4
  store double %0, ptr %4, align 8, !tbaa !27
  store double %1, ptr %5, align 8, !tbaa !27
  store ptr %2, ptr %6, align 8, !tbaa !30
  call void @llvm.lifetime.start.p0(i64 8, ptr %7) #7
  %12 = load double, ptr %4, align 8, !tbaa !27
  %13 = call nsz double @llvm.pow.f64(double %12, double 0x3FDAAAAAAAAAAAAB)
  store double %13, ptr %7, align 8, !tbaa !27
  call void @llvm.lifetime.start.p0(i64 8, ptr %8) #7
  %14 = load double, ptr %5, align 8, !tbaa !27
  %15 = call nsz double @llvm.pow.f64(double %14, double 0x3FDAAAAAAAAAAAAB)
  store double %15, ptr %8, align 8, !tbaa !27
  call void @llvm.lifetime.start.p0(i64 8, ptr %9) #7
  %16 = load double, ptr %7, align 8, !tbaa !27
  %17 = load double, ptr %8, align 8, !tbaa !27
  %18 = fsub nsz double %16, %17
  %19 = call nsz double @llvm.pow.f64(double %18, double 2.400000e+00)
  store double %19, ptr %9, align 8, !tbaa !27
  call void @llvm.lifetime.start.p0(i64 8, ptr %10) #7
  %20 = load double, ptr %8, align 8, !tbaa !27
  %21 = load double, ptr %7, align 8, !tbaa !27
  %22 = load double, ptr %8, align 8, !tbaa !27
  %23 = fsub nsz double %21, %22
  %24 = fdiv nsz double %20, %23
  store double %24, ptr %10, align 8, !tbaa !27
  call void @llvm.lifetime.start.p0(i64 4, ptr %11) #7
  store i32 0, ptr %11, align 4, !tbaa !4
  br label %25

25:                                               ; preds = %56, %3
  %26 = load i32, ptr %11, align 4, !tbaa !4
  %27 = icmp slt i32 %26, 3
  br i1 %27, label %29, label %28

28:                                               ; preds = %25
  call void @llvm.lifetime.end.p0(i64 4, ptr %11) #7
  br label %59

29:                                               ; preds = %25
  %30 = load double, ptr %10, align 8, !tbaa !27
  %31 = fneg nsz double %30
  %32 = load ptr, ptr %6, align 8, !tbaa !30
  %33 = load i32, ptr %11, align 4, !tbaa !4
  %34 = sext i32 %33 to i64
  %35 = getelementptr inbounds double, ptr %32, i64 %34
  %36 = load double, ptr %35, align 8, !tbaa !27
  %37 = fcmp nsz ogt double %31, %36
  br i1 %37, label %38, label %39

38:                                               ; preds = %29
  br label %50

39:                                               ; preds = %29
  %40 = load double, ptr %9, align 8, !tbaa !27
  %41 = load ptr, ptr %6, align 8, !tbaa !30
  %42 = load i32, ptr %11, align 4, !tbaa !4
  %43 = sext i32 %42 to i64
  %44 = getelementptr inbounds double, ptr %41, i64 %43
  %45 = load double, ptr %44, align 8, !tbaa !27
  %46 = load double, ptr %10, align 8, !tbaa !27
  %47 = fadd nsz double %45, %46
  %48 = call nsz double @llvm.pow.f64(double %47, double 2.400000e+00)
  %49 = fmul nsz double %40, %48
  br label %50

50:                                               ; preds = %39, %38
  %51 = phi nsz double [ 0.000000e+00, %38 ], [ %49, %39 ]
  %52 = load ptr, ptr %6, align 8, !tbaa !30
  %53 = load i32, ptr %11, align 4, !tbaa !4
  %54 = sext i32 %53 to i64
  %55 = getelementptr inbounds double, ptr %52, i64 %54
  store double %51, ptr %55, align 8, !tbaa !27
  br label %56

56:                                               ; preds = %50
  %57 = load i32, ptr %11, align 4, !tbaa !4
  %58 = add nsw i32 %57, 1
  store i32 %58, ptr %11, align 4, !tbaa !4
  br label %25, !llvm.loop !32

59:                                               ; preds = %28
  call void @llvm.lifetime.end.p0(i64 8, ptr %10) #7
  call void @llvm.lifetime.end.p0(i64 8, ptr %9) #7
  call void @llvm.lifetime.end.p0(i64 8, ptr %8) #7
  call void @llvm.lifetime.end.p0(i64 8, ptr %7) #7
  ret void
}