; Function Attrs: nofree norecurse nosync nounwind memory(argmem: readwrite) uwtable
define internal void @eotf_bt1886(double noundef %0, double noundef %1, ptr noundef captures(none) %2) #5 {
  %4 = tail call nsz double @llvm.pow.f64(double %0, double 0x3FDAAAAAAAAAAAAB)
  %5 = tail call nsz double @llvm.pow.f64(double %1, double 0x3FDAAAAAAAAAAAAB)
  %6 = fsub nsz double %4, %5
  %7 = tail call nsz double @llvm.pow.f64(double %6, double 2.400000e+00)
  %8 = fdiv nsz double %5, %6
  %9 = fneg nsz double %8
  br label %11

10:                                               ; preds = %19
  ret void

11:                                               ; preds = %3, %19
  %indvars.iv = phi i64 [ 0, %3 ], [ %indvars.iv.next, %19 ]
  %12 = getelementptr inbounds nuw double, ptr %2, i64 %indvars.iv
  %13 = load double, ptr %12, align 8, !tbaa !16
  %14 = fcmp nsz olt double %13, %9
  br i1 %14, label %19, label %15

15:                                               ; preds = %11
  %16 = fadd nsz double %8, %13
  %17 = tail call nsz double @llvm.pow.f64(double %16, double 2.400000e+00)
  %18 = fmul nsz double %7, %17
  br label %19

19:                                               ; preds = %11, %15
  %20 = phi nsz double [ %18, %15 ], [ 0.000000e+00, %11 ]
  store double %20, ptr %12, align 8, !tbaa !16
  %indvars.iv.next = add nuw nsw i64 %indvars.iv, 1
  %exitcond.not = icmp eq i64 %indvars.iv.next, 3
  br i1 %exitcond.not, label %10, label %11, !llvm.loop !20
}